; Function Attrs: mustprogress nofree nounwind willreturn memory(read, inaccessiblemem: none) uwtable
define dso_local noundef zeroext i1 @_ZNK9MXNetNode10has_weightEi(ptr noundef nonnull readonly align 8 captures(none) dereferenceable(208) %0, i32 noundef %1) local_unnamed_addr #5 align 2 {
  %3 = icmp slt i32 %1, 0
  br i1 %3, label %.critedge, label %4

4:                                                ; preds = %2
  %5 = getelementptr inbounds nuw i8, ptr %0, i64 184
  %6 = getelementptr inbounds nuw i8, ptr %0, i64 192
  %7 = load ptr, ptr %6, align 8, !tbaa !31
  %8 = load ptr, ptr %5, align 8, !tbaa !28
  %9 = ptrtoint ptr %7 to i64
  %10 = ptrtoint ptr %8 to i64
  %11 = sub i64 %9, %10
  %12 = lshr exact i64 %11, 2
  %13 = trunc i64 %12 to i32
  %.not = icmp slt i32 %1, %13
  br i1 %.not, label %14, label %.critedge

14:                                               ; preds = %4
  %15 = load ptr, ptr %0, align 8, !tbaa !57
  %16 = zext nneg i32 %1 to i64
  %17 = getelementptr inbounds nuw i32, ptr %8, i64 %16
  %18 = load i32, ptr %17, align 4, !tbaa !24
  %19 = sext i32 %18 to i64
  %20 = load ptr, ptr %15, align 8, !tbaa !58
  %21 = getelementptr inbounds nuw %class.MXNetNode, ptr %20, i64 %19, i32 3
  %22 = getelementptr inbounds nuw i8, ptr %0, i64 8
  %23 = load ptr, ptr %22, align 8, !tbaa !40
  %24 = getelementptr inbounds nuw i8, ptr %23, i64 8
  %25 = load ptr, ptr %24, align 8, !tbaa !52
  %26 = load ptr, ptr %23, align 8, !tbaa !55
  %27 = ptrtoint ptr %25 to i64
  %28 = ptrtoint ptr %26 to i64
  %29 = sub i64 %27, %28
  %30 = sdiv exact i64 %29, 88
  %31 = trunc i64 %30 to i32
  %.not1618 = icmp sgt i32 %31, 0
  br i1 %.not1618, label %.lr.ph, label %.critedge

.lr.ph:                                           ; preds = %14
  %32 = getelementptr inbounds nuw i8, ptr %21, i64 8
  %33 = load i64, ptr %32, align 8, !tbaa !15
  %wide.trip.count = and i64 %30, 2147483647
  %34 = icmp eq i64 %33, 0
  br label %35

35:                                               ; preds = %.lr.ph, %_ZSteqIcEN9__gnu_cxx11__enable_ifIXsr9__is_charIT_EE7__valueEbE6__typeERKNSt7__cxx1112basic_stringIS2_St11char_traitsIS2_ESaIS2_EEESC_.exit.thread17
  %indvars.iv = phi i64 [ 0, %.lr.ph ], [ %indvars.iv.next, %_ZSteqIcEN9__gnu_cxx11__enable_ifIXsr9__is_charIT_EE7__valueEbE6__typeERKNSt7__cxx1112basic_stringIS2_St11char_traitsIS2_ESaIS2_EEESC_.exit.thread17 ]
  %36 = getelementptr inbounds nuw %class.MXNetParam, ptr %26, i64 %indvars.iv
  %37 = getelementptr inbounds nuw i8, ptr %36, i64 8
  %38 = load i64, ptr %37, align 8, !tbaa !15
  %39 = icmp eq i64 %38, %33
  br i1 %39, label %40, label %_ZSteqIcEN9__gnu_cxx11__enable_ifIXsr9__is_charIT_EE7__valueEbE6__typeERKNSt7__cxx1112basic_stringIS2_St11char_traitsIS2_ESaIS2_EEESC_.exit.thread17

40:                                               ; preds = %35
  br i1 %34, label %.critedge, label %_ZSteqIcEN9__gnu_cxx11__enable_ifIXsr9__is_charIT_EE7__valueEbE6__typeERKNSt7__cxx1112basic_stringIS2_St11char_traitsIS2_ESaIS2_EEESC_.exit

_ZSteqIcEN9__gnu_cxx11__enable_ifIXsr9__is_charIT_EE7__valueEbE6__typeERKNSt7__cxx1112basic_stringIS2_St11char_traitsIS2_ESaIS2_EEESC_.exit: ; preds = %40
  %41 = load ptr, ptr %21, align 8, !tbaa !12
  %42 = load ptr, ptr %36, align 8, !tbaa !12
  %bcmp.i = tail call i32 @bcmp(ptr %42, ptr %41, i64 %33)
  %43 = icmp eq i32 %bcmp.i, 0
  br i1 %43, label %.critedge, label %_ZSteqIcEN9__gnu_cxx11__enable_ifIXsr9__is_charIT_EE7__valueEbE6__typeERKNSt7__cxx1112basic_stringIS2_St11char_traitsIS2_ESaIS2_EEESC_.exit.thread17

_ZSteqIcEN9__gnu_cxx11__enable_ifIXsr9__is_charIT_EE7__valueEbE6__typeERKNSt7__cxx1112basic_stringIS2_St11char_traitsIS2_ESaIS2_EEESC_.exit.thread17: ; preds = %35, %_ZSteqIcEN9__gnu_cxx11__enable_ifIXsr9__is_charIT_EE7__valueEbE6__typeERKNSt7__cxx1112basic_stringIS2_St11char_traitsIS2_ESaIS2_EEESC_.exit
  %indvars.iv.next = add nuw nsw i64 %indvars.iv, 1
  %exitcond.not = icmp eq i64 %indvars.iv.next, %wide.trip.count
  br i1 %exitcond.not, label %.critedge, label %35, !llvm.loop !61

.critedge:                                        ; preds = %_ZSteqIcEN9__gnu_cxx11__enable_ifIXsr9__is_charIT_EE7__valueEbE6__typeERKNSt7__cxx1112basic_stringIS2_St11char_traitsIS2_ESaIS2_EEESC_.exit, %_ZSteqIcEN9__gnu_cxx11__enable_ifIXsr9__is_charIT_EE7__valueEbE6__typeERKNSt7__cxx1112basic_stringIS2_St11char_traitsIS2_ESaIS2_EEESC_.exit.thread17, %40, %14, %2, %4
  %.0 = phi i1 [ false, %4 ], [ false, %2 ], [ false, %14 ], [ true, %_ZSteqIcEN9__gnu_cxx11__enable_ifIXsr9__is_charIT_EE7__valueEbE6__typeERKNSt7__cxx1112basic_stringIS2_St11char_traitsIS2_ESaIS2_EEESC_.exit ], [ false, %_ZSteqIcEN9__gnu_cxx11__enable_ifIXsr9__is_charIT_EE7__valueEbE6__typeERKNSt7__cxx1112basic_stringIS2_St11char_traitsIS2_ESaIS2_EEESC_.exit.thread17 ], [ true, %40 ]
  ret i1 %.0
}